target datalayout = "e-m:e-p270:32:32-p271:32:32-p272:64:64-i64:64-i128:128-f80:128-n8:16:32:64-S128"
target triple = "x86_64-pc-linux-gnu"

@hf_cigi3_component_control_component_id = internal global i32 0, align 4
@hf_cigi3_component_control_instance_id = internal global i32 0, align 4
@hf_cigi3_component_control_component_class = internal global i32 0, align 4
@hf_cigi3_component_control_component_state = internal global i32 0, align 4
@hf_cigi3_component_control_data_1 = internal global i32 0, align 4
@hf_cigi3_component_control_data_2 = internal global i32 0, align 4
@hf_cigi3_component_control_data_3 = internal global i32 0, align 4
@hf_cigi3_component_control_data_4 = internal global i32 0, align 4
@hf_cigi3_component_control_data_5 = internal global i32 0, align 4
@hf_cigi3_component_control_data_6 = internal global i32 0, align 4
@hf_cigi3_3_component_control_component_class = internal global i32 0, align 4
@cigi_byte_order = internal global i32 0, align 4
@cigi_minor_version = internal global i32 0, align 4

; Function Attrs: null_pointer_is_valid sspstrong uwtable
define internal i32 @cigi3_add_component_control(ptr noundef %0, ptr noundef %1, ptr noundef %2, ptr noundef %3) #0 {
  %5 = alloca ptr, align 8
  %6 = alloca ptr, align 8
  %7 = alloca ptr, align 8
  %8 = alloca ptr, align 8
  %9 = alloca i32, align 4
  store ptr %0, ptr %5, align 8
  store ptr %1, ptr %6, align 8
  store ptr %2, ptr %7, align 8
  store ptr %3, ptr %8, align 8
  call void @llvm.lifetime.start.p0(i64 4, ptr %9) #5
  store i32 0, ptr %9, align 4
  %10 = load ptr, ptr %7, align 8
  %11 = load i32, ptr @hf_cigi3_component_control_component_id, align 4
  %12 = load ptr, ptr %5, align 8
  %13 = load i32, ptr %9, align 4
  %14 = load i32, ptr @cigi_byte_order, align 4
  %15 = call ptr @proto_tree_add_item(ptr noundef %10, i32 noundef %11, ptr noundef %12, i32 noundef %13, i32 noundef 2, i32 noundef %14)
  %16 = load i32, ptr %9, align 4
  %17 = add i32 %16, 2
  store i32 %17, ptr %9, align 4
  %18 = load ptr, ptr %7, align 8
  %19 = load i32, ptr @hf_cigi3_component_control_instance_id, align 4
  %20 = load ptr, ptr %5, align 8
  %21 = load i32, ptr %9, align 4
  %22 = load i32, ptr @cigi_byte_order, align 4
  %23 = call ptr @proto_tree_add_item(ptr noundef %18, i32 noundef %19, ptr noundef %20, i32 noundef %21, i32 noundef 2, i32 noundef %22)
  %24 = load i32, ptr %9, align 4
  %25 = add i32 %24, 2
  store i32 %25, ptr %9, align 4
  %26 = load i32, ptr @cigi_minor_version, align 4
  %27 = icmp sge i32 %26, 3
  br i1 %27, label %28, label %35

28:                                               ; preds = %4
  %29 = load ptr, ptr %7, align 8
  %30 = load i32, ptr @hf_cigi3_3_component_control_component_class, align 4
  %31 = load ptr, ptr %5, align 8
  %32 = load i32, ptr %9, align 4
  %33 = load i32, ptr @cigi_byte_order, align 4
  %34 = call ptr @proto_tree_add_item(ptr noundef %29, i32 noundef %30, ptr noundef %31, i32 noundef %32, i32 noundef 1, i32 noundef %33)
  br label %42

35:                                               ; preds = %4
  %36 = load ptr, ptr %7, align 8
  %37 = load i32, ptr @hf_cigi3_component_control_component_class, align 4
  %38 = load ptr, ptr %5, align 8
  %39 = load i32, ptr %9, align 4
  %40 = load i32, ptr @cigi_byte_order, align 4
  %41 = call ptr @proto_tree_add_item(ptr noundef %36, i32 noundef %37, ptr noundef %38, i32 noundef %39, i32 noundef 1, i32 noundef %40)
  br label %42

42:                                               ; preds = %35, %28
  %43 = load i32, ptr %9, align 4
  %44 = add i32 %43, 1
  store i32 %44, ptr %9, align 4
  %45 = load ptr, ptr %7, align 8
  %46 = load i32, ptr @hf_cigi3_component_control_component_state, align 4
  %47 = load ptr, ptr %5, align 8
  %48 = load i32, ptr %9, align 4
  %49 = load i32, ptr @cigi_byte_order, align 4
  %50 = call ptr @proto_tree_add_item(ptr noundef %45, i32 noundef %46, ptr noundef %47, i32 noundef %48, i32 noundef 1, i32 noundef %49)
  %51 = load i32, ptr %9, align 4
  %52 = add i32 %51, 1
  store i32 %52, ptr %9, align 4
  %53 = load ptr, ptr %7, align 8
  %54 = load i32, ptr @hf_cigi3_component_control_data_1, align 4
  %55 = load ptr, ptr %5, align 8
  %56 = load i32, ptr %9, align 4
  %57 = load i32, ptr @cigi_byte_order, align 4
  %58 = call ptr @proto_tree_add_item(ptr noundef %53, i32 noundef %54, ptr noundef %55, i32 noundef %56, i32 noundef 4, i32 noundef %57)
  %59 = load i32, ptr %9, align 4
  %60 = add i32 %59, 4
  store i32 %60, ptr %9, align 4
  %61 = load ptr, ptr %7, align 8
  %62 = load i32, ptr @hf_cigi3_component_control_data_2, align 4
  %63 = load ptr, ptr %5, align 8
  %64 = load i32, ptr %9, align 4
  %65 = load i32, ptr @cigi_byte_order, align 4
  %66 = call ptr @proto_tree_add_item(ptr noundef %61, i32 noundef %62, ptr noundef %63, i32 noundef %64, i32 noundef 4, i32 noundef %65)
  %67 = load i32, ptr %9, align 4
  %68 = add i32 %67, 4
  store i32 %68, ptr %9, align 4
  %69 = load ptr, ptr %7, align 8
  %70 = load i32, ptr @hf_cigi3_component_control_data_3, align 4
  %71 = load ptr, ptr %5, align 8
  %72 = load i32, ptr %9, align 4
  %73 = load i32, ptr @cigi_byte_order, align 4
  %74 = call ptr @proto_tree_add_item(ptr noundef %69, i32 noundef %70, ptr noundef %71, i32 noundef %72, i32 noundef 4, i32 noundef %73)
  %75 = load i32, ptr %9, align 4
  %76 = add i32 %75, 4
  store i32 %76, ptr %9, align 4
  %77 = load ptr, ptr %7, align 8
  %78 = load i32, ptr @hf_cigi3_component_control_data_4, align 4
  %79 = load ptr, ptr %5, align 8
  %80 = load i32, ptr %9, align 4
  %81 = load i32, ptr @cigi_byte_order, align 4
  %82 = call ptr @proto_tree_add_item(ptr noundef %77, i32 noundef %78, ptr noundef %79, i32 noundef %80, i32 noundef 4, i32 noundef %81)
  %83 = load i32, ptr %9, align 4
  %84 = add i32 %83, 4
  store i32 %84, ptr %9, align 4
  %85 = load ptr, ptr %7, align 8
  %86 = load i32, ptr @hf_cigi3_component_control_data_5, align 4
  %87 = load ptr, ptr %5, align 8
  %88 = load i32, ptr %9, align 4
  %89 = load i32, ptr @cigi_byte_order, align 4
  %90 = call ptr @proto_tree_add_item(ptr noundef %85, i32 noundef %86, ptr noundef %87, i32 noundef %88, i32 noundef 4, i32 noundef %89)
  %91 = load i32, ptr %9, align 4
  %92 = add i32 %91, 4
  store i32 %92, ptr %9, align 4
  %93 = load ptr, ptr %7, align 8
  %94 = load i32, ptr @hf_cigi3_component_control_data_6, align 4
  %95 = load ptr, ptr %5, align 8
  %96 = load i32, ptr %9, align 4
  %97 = load i32, ptr @cigi_byte_order, align 4
  %98 = call ptr @proto_tree_add_item(ptr noundef %93, i32 noundef %94, ptr noundef %95, i32 noundef %96, i32 noundef 4, i32 noundef %97)
  %99 = load i32, ptr %9, align 4
  %100 = add i32 %99, 4
  store i32 %100, ptr %9, align 4
  %101 = load i32, ptr %9, align 4
  call void @llvm.lifetime.end.p0(i64 4, ptr %9) #5
  ret i32 %101
}