; Function Attrs: null_pointer_is_valid sspstrong uwtable
define internal noundef i32 @cigi3_add_component_control(ptr noundef %0, ptr readnone captures(none) %1, ptr noundef %2, ptr readnone captures(none) %3) #0 {
  %5 = load i32, ptr @hf_cigi3_component_control_component_id, align 4
  %.b52 = load i1, ptr @cigi_byte_order, align 4
  %6 = select i1 %.b52, i32 -2147483648, i32 0
  %7 = tail call ptr @proto_tree_add_item(ptr noundef %2, i32 noundef %5, ptr noundef %0, i32 noundef 0, i32 noundef 2, i32 noundef %6)
  %8 = load i32, ptr @hf_cigi3_component_control_instance_id, align 4
  %.b51 = load i1, ptr @cigi_byte_order, align 4
  %9 = select i1 %.b51, i32 -2147483648, i32 0
  %10 = tail call ptr @proto_tree_add_item(ptr noundef %2, i32 noundef %8, ptr noundef %0, i32 noundef 2, i32 noundef 2, i32 noundef %9)
  %11 = load i32, ptr @cigi_minor_version, align 4
  %12 = icmp sgt i32 %11, 2
  %.b50 = load i1, ptr @cigi_byte_order, align 4
  %13 = select i1 %.b50, i32 -2147483648, i32 0
  %hf_cigi3_3_component_control_component_class.val = load i32, ptr @hf_cigi3_3_component_control_component_class, align 4
  %hf_cigi3_component_control_component_class.val = load i32, ptr @hf_cigi3_component_control_component_class, align 4
  %14 = select i1 %12, i32 %hf_cigi3_3_component_control_component_class.val, i32 %hf_cigi3_component_control_component_class.val
  %15 = tail call ptr @proto_tree_add_item(ptr noundef %2, i32 noundef %14, ptr noundef %0, i32 noundef 4, i32 noundef 1, i32 noundef %13)
  %16 = load i32, ptr @hf_cigi3_component_control_component_state, align 4
  %.b48 = load i1, ptr @cigi_byte_order, align 4
  %17 = select i1 %.b48, i32 -2147483648, i32 0
  %18 = tail call ptr @proto_tree_add_item(ptr noundef %2, i32 noundef %16, ptr noundef %0, i32 noundef 5, i32 noundef 1, i32 noundef %17)
  %19 = load i32, ptr @hf_cigi3_component_control_data_1, align 4
  %.b47 = load i1, ptr @cigi_byte_order, align 4
  %20 = select i1 %.b47, i32 -2147483648, i32 0
  %21 = tail call ptr @proto_tree_add_item(ptr noundef %2, i32 noundef %19, ptr noundef %0, i32 noundef 6, i32 noundef 4, i32 noundef %20)
  %22 = load i32, ptr @hf_cigi3_component_control_data_2, align 4
  %.b46 = load i1, ptr @cigi_byte_order, align 4
  %23 = select i1 %.b46, i32 -2147483648, i32 0
  %24 = tail call ptr @proto_tree_add_item(ptr noundef %2, i32 noundef %22, ptr noundef %0, i32 noundef 10, i32 noundef 4, i32 noundef %23)
  %25 = load i32, ptr @hf_cigi3_component_control_data_3, align 4
  %.b45 = load i1, ptr @cigi_byte_order, align 4
  %26 = select i1 %.b45, i32 -2147483648, i32 0
  %27 = tail call ptr @proto_tree_add_item(ptr noundef %2, i32 noundef %25, ptr noundef %0, i32 noundef 14, i32 noundef 4, i32 noundef %26)
  %28 = load i32, ptr @hf_cigi3_component_control_data_4, align 4
  %.b44 = load i1, ptr @cigi_byte_order, align 4
  %29 = select i1 %.b44, i32 -2147483648, i32 0
  %30 = tail call ptr @proto_tree_add_item(ptr noundef %2, i32 noundef %28, ptr noundef %0, i32 noundef 18, i32 noundef 4, i32 noundef %29)
  %31 = load i32, ptr @hf_cigi3_component_control_data_5, align 4
  %.b43 = load i1, ptr @cigi_byte_order, align 4
  %32 = select i1 %.b43, i32 -2147483648, i32 0
  %33 = tail call ptr @proto_tree_add_item(ptr noundef %2, i32 noundef %31, ptr noundef %0, i32 noundef 22, i32 noundef 4, i32 noundef %32)
  %34 = load i32, ptr @hf_cigi3_component_control_data_6, align 4
  %.b = load i1, ptr @cigi_byte_order, align 4
  %35 = select i1 %.b, i32 -2147483648, i32 0
  %36 = tail call ptr @proto_tree_add_item(ptr noundef %2, i32 noundef %34, ptr noundef %0, i32 noundef 26, i32 noundef 4, i32 noundef %35)
  ret i32 30
}